target datalayout = "e-m:e-p270:32:32-p271:32:32-p272:64:64-i64:64-i128:128-f80:128-n8:16:32:64-S128"
target triple = "x86_64-pc-linux-gnu"

%struct._snmp_ue_assoc_t = type { %struct._snmp_user_t, %struct.snmp_engine_id_t, i32, i32, ptr }
%struct._snmp_user_t = type { %struct._snmp_usm_key, i32, %struct._snmp_usm_key, %struct._snmp_usm_key, ptr, %struct._snmp_usm_key, %struct._snmp_usm_key }
%struct._snmp_usm_key = type { ptr, i32 }
%struct.snmp_engine_id_t = type { ptr, i32 }

; Function Attrs: nounwind uwtable
define internal void @snmp_users_privPassword_set_cb(ptr noundef %0, ptr noundef %1, i32 noundef %2, ptr noundef %3, ptr noundef %4) #0 {
  %6 = alloca ptr, align 8
  %7 = alloca ptr, align 8
  %8 = alloca i32, align 4
  %9 = alloca ptr, align 8
  %10 = alloca ptr, align 8
  %11 = alloca ptr, align 8
  store ptr %0, ptr %6, align 8
  store ptr %1, ptr %7, align 8
  store i32 %2, ptr %8, align 4
  store ptr %3, ptr %9, align 8
  store ptr %4, ptr %10, align 8
  %12 = load ptr, ptr %7, align 8
  %13 = load i32, ptr %8, align 4
  %14 = load ptr, ptr %6, align 8
  %15 = getelementptr inbounds %struct._snmp_ue_assoc_t, ptr %14, i32 0, i32 0
  %16 = getelementptr inbounds %struct._snmp_user_t, ptr %15, i32 0, i32 5
  %17 = getelementptr inbounds %struct._snmp_usm_key, ptr %16, i32 0, i32 1
  %18 = call ptr @uat_unesc(ptr noundef %12, i32 noundef %13, ptr noundef %17)
  store ptr %18, ptr %11, align 8
  %19 = load ptr, ptr %6, align 8
  %20 = getelementptr inbounds %struct._snmp_ue_assoc_t, ptr %19, i32 0, i32 0
  %21 = getelementptr inbounds %struct._snmp_user_t, ptr %20, i32 0, i32 5
  %22 = getelementptr inbounds %struct._snmp_usm_key, ptr %21, i32 0, i32 0
  %23 = load ptr, ptr %22, align 8
  call void @g_free(ptr noundef %23)
  %24 = load ptr, ptr %11, align 8
  %25 = load ptr, ptr %6, align 8
  %26 = getelementptr inbounds %struct._snmp_ue_assoc_t, ptr %25, i32 0, i32 0
  %27 = getelementptr inbounds %struct._snmp_user_t, ptr %26, i32 0, i32 5
  %28 = getelementptr inbounds %struct._snmp_usm_key, ptr %27, i32 0, i32 0
  store ptr %24, ptr %28, align 8
  ret void
}