; Function Attrs: nounwind uwtable
define internal void @snmp_users_privPassword_set_cb(ptr noundef %0, ptr noundef %1, i32 noundef %2, ptr readnone captures(none) %3, ptr readnone captures(none) %4) #0 {
  %6 = getelementptr inbounds nuw i8, ptr %0, i64 64
  %7 = getelementptr inbounds nuw i8, ptr %0, i64 72
  %8 = tail call ptr @uat_unesc(ptr noundef %1, i32 noundef %2, ptr noundef nonnull %7) #11
  %9 = load ptr, ptr %6, align 8
  tail call void @g_free(ptr noundef %9) #11
  store ptr %8, ptr %6, align 8
  ret void
}